; Function Attrs: mustprogress nounwind uwtable
define hidden void @_ZN4llvh16raw_null_ostreamD2Ev(ptr nocapture noundef nonnull align 8 dereferenceable(36) %this) unnamed_addr #0 align 2 {
entry:
  store ptr getelementptr inbounds ({ [13 x ptr] }, ptr @_ZTVN4llvh11raw_ostreamE, i64 0, i32 0, i64 2), ptr %this, align 8
  %BufferMode.i.i = getelementptr inbounds i8, ptr %this, i64 32
  %0 = load i32, ptr %BufferMode.i.i, align 8
  %cmp.i.i = icmp eq i32 %0, 1
  br i1 %cmp.i.i, label %if.then.i.i, label %_ZN4llvh17raw_pwrite_streamD2Ev.exit

if.then.i.i:                                      ; preds = %entry
  %OutBufStart.i.i = getelementptr inbounds i8, ptr %this, i64 8
  %1 = load ptr, ptr %OutBufStart.i.i, align 8
  %isnull.i.i = icmp eq ptr %1, null
  br i1 %isnull.i.i, label %_ZN4llvh17raw_pwrite_streamD2Ev.exit, label %delete.notnull.i.i

delete.notnull.i.i:                               ; preds = %if.then.i.i
  tail call void @_ZdaPv(ptr noundef nonnull %1) #24
  br label %_ZN4llvh17raw_pwrite_streamD2Ev.exit

_ZN4llvh17raw_pwrite_streamD2Ev.exit:             ; preds = %entry, %if.then.i.i, %delete.notnull.i.i
  ret void
}